; Function Attrs: mustprogress uwtable
define hidden noundef ptr @_ZN10duckdb_re23DFA22RunStateOnByteUnlockedEPNS0_5StateEi(ptr noundef nonnull align 8 dereferenceable(296) %0, ptr noundef %1, i32 noundef %2) local_unnamed_addr #1 align 2 personality ptr @__gxx_personality_v0 {
  %4 = alloca %"class.duckdb_re2::MutexLock", align 8
  call void @llvm.lifetime.start.p0(i64 8, ptr nonnull %4) #20
  %5 = getelementptr inbounds nuw i8, ptr %0, i64 16
  store ptr %5, ptr %4, align 8, !tbaa !150
  %6 = tail call i32 @pthread_rwlock_wrlock(ptr noundef nonnull align 8 dereferenceable(56) %5) #20
  %.not.i.i = icmp eq i32 %6, 0
  br i1 %.not.i.i, label %_ZN10duckdb_re29MutexLockC2EPNS_5MutexE.exit, label %7

7:                                                ; preds = %3
  %8 = tail call ptr @__cxa_allocate_exception(i64 16) #20
  invoke void @_ZNSt13runtime_errorC1EPKc(ptr noundef nonnull align 8 dereferenceable(16) %8, ptr noundef nonnull @.str.18)
          to label %9 unwind label %10

9:                                                ; preds = %7
  tail call void @__cxa_throw(ptr nonnull %8, ptr nonnull @_ZTISt13runtime_error, ptr nonnull @_ZNSt13runtime_errorD1Ev) #21
  unreachable

common.resume:                                    ; preds = %23, %10
  %common.resume.op = phi { ptr, i32 } [ %11, %10 ], [ %24, %23 ]
  resume { ptr, i32 } %common.resume.op

10:                                               ; preds = %7
  %11 = landingpad { ptr, i32 }
          cleanup
  tail call void @__cxa_free_exception(ptr nonnull %8) #20
  br label %common.resume

_ZN10duckdb_re29MutexLockC2EPNS_5MutexE.exit:     ; preds = %3
  %12 = invoke noundef ptr @_ZN10duckdb_re23DFA14RunStateOnByteEPNS0_5StateEi(ptr noundef nonnull align 8 dereferenceable(296) %0, ptr noundef %1, i32 noundef %2)
          to label %13 unwind label %23

13:                                               ; preds = %_ZN10duckdb_re29MutexLockC2EPNS_5MutexE.exit
  %14 = tail call i32 @pthread_rwlock_unlock(ptr noundef nonnull align 8 dereferenceable(56) %5) #20
  %.not.i.i4 = icmp eq i32 %14, 0
  br i1 %.not.i.i4, label %_ZN10duckdb_re29MutexLockD2Ev.exit, label %15

15:                                               ; preds = %13
  %16 = tail call ptr @__cxa_allocate_exception(i64 16) #20
  invoke void @_ZNSt13runtime_errorC1EPKc(ptr noundef nonnull align 8 dereferenceable(16) %16, ptr noundef nonnull @.str.18)
          to label %17 unwind label %18

17:                                               ; preds = %15
  invoke void @__cxa_throw(ptr nonnull %16, ptr nonnull @_ZTISt13runtime_error, ptr nonnull @_ZNSt13runtime_errorD1Ev) #21
          to label %.noexc.i unwind label %20

.noexc.i:                                         ; preds = %17
  unreachable

18:                                               ; preds = %15
  %19 = landingpad { ptr, i32 }
          catch ptr null
  tail call void @__cxa_free_exception(ptr nonnull %16) #20
  br label %.body.i

20:                                               ; preds = %17
  %21 = landingpad { ptr, i32 }
          catch ptr null
  br label %.body.i

.body.i:                                          ; preds = %20, %18
  %eh.lpad-body.i = phi { ptr, i32 } [ %21, %20 ], [ %19, %18 ]
  %22 = extractvalue { ptr, i32 } %eh.lpad-body.i, 0
  tail call void @__clang_call_terminate(ptr %22) #24
  unreachable

_ZN10duckdb_re29MutexLockD2Ev.exit:               ; preds = %13
  call void @llvm.lifetime.end.p0(i64 8, ptr nonnull %4) #20
  ret ptr %12

23:                                               ; preds = %_ZN10duckdb_re29MutexLockC2EPNS_5MutexE.exit
  %24 = landingpad { ptr, i32 }
          cleanup
  call void @_ZN10duckdb_re29MutexLockD2Ev(ptr noundef nonnull align 8 dereferenceable(8) %4) #20
  call void @llvm.lifetime.end.p0(i64 8, ptr nonnull %4) #20
  br label %common.resume
}